target datalayout = "e-m:e-p270:32:32-p271:32:32-p272:64:64-i64:64-i128:128-f80:128-n8:16:32:64-S128"
target triple = "x86_64-pc-linux-gnu"

%"class.(anonymous namespace)::WinEHStatePass" = type { %"class.llvm::FunctionPass.base", ptr, ptr, ptr, ptr, %"class.llvm::FunctionCallee", %"class.llvm::FunctionCallee", i32, ptr, i8, i32, %"class.llvm::FunctionCallee", ptr, ptr, ptr, i32, ptr }
%"class.llvm::FunctionPass.base" = type { %"class.llvm::Pass.base" }
%"class.llvm::Pass.base" = type <{ ptr, ptr, ptr, i32 }>
%"class.llvm::FunctionCallee" = type { ptr, ptr }

; Function Attrs: mustprogress nounwind uwtable
define linkonce_odr hidden void @_ZN4llvm14FunctionCalleeC2EDn(ptr noundef nonnull align 8 dereferenceable(16) %0, ptr %1) unnamed_addr #0 comdat align 2 {
  %3 = alloca ptr, align 8
  %4 = alloca ptr, align 8
  store ptr %0, ptr %3, align 8
  store ptr %1, ptr %4, align 8
  %5 = load ptr, ptr %3, align 8
  %6 = getelementptr inbounds nuw %"class.llvm::FunctionCallee", ptr %5, i32 0, i32 0
  store ptr null, ptr %6, align 8
  %7 = getelementptr inbounds nuw %"class.llvm::FunctionCallee", ptr %5, i32 0, i32 1
  store ptr null, ptr %7, align 8
  ret void
}

; Function Attrs: mustprogress nounwind uwtable
define internal noundef zeroext i1 @_ZN12_GLOBAL__N_114WinEHStatePass14doFinalizationERN4llvm6ModuleE(ptr noundef nonnull align 8 dereferenceable(176) %0, ptr noundef nonnull align 8 dereferenceable(857) %1) unnamed_addr #0 align 2 {
  %3 = alloca ptr, align 8
  %4 = alloca ptr, align 8
  %5 = alloca %"class.llvm::FunctionCallee", align 8
  %6 = alloca %"class.llvm::FunctionCallee", align 8
  %7 = alloca %"class.llvm::FunctionCallee", align 8
  store ptr %0, ptr %3, align 8
  store ptr %1, ptr %4, align 8
  %8 = load ptr, ptr %3, align 8
  %9 = getelementptr inbounds nuw %"class.(anonymous namespace)::WinEHStatePass", ptr %8, i32 0, i32 1
  store ptr null, ptr %9, align 8
  %10 = getelementptr inbounds nuw %"class.(anonymous namespace)::WinEHStatePass", ptr %8, i32 0, i32 2
  store ptr null, ptr %10, align 8
  %11 = getelementptr inbounds nuw %"class.(anonymous namespace)::WinEHStatePass", ptr %8, i32 0, i32 3
  store ptr null, ptr %11, align 8
  %12 = getelementptr inbounds nuw %"class.(anonymous namespace)::WinEHStatePass", ptr %8, i32 0, i32 4
  store ptr null, ptr %12, align 8
  call void @_ZN4llvm14FunctionCalleeC2EDn(ptr noundef nonnull align 8 dereferenceable(16) %5, ptr null)
  %13 = getelementptr inbounds nuw %"class.(anonymous namespace)::WinEHStatePass", ptr %8, i32 0, i32 5
  call void @llvm.memcpy.p0.p0.i64(ptr align 8 %13, ptr align 8 %5, i64 16, i1 false)
  call void @_ZN4llvm14FunctionCalleeC2EDn(ptr noundef nonnull align 8 dereferenceable(16) %6, ptr null)
  %14 = getelementptr inbounds nuw %"class.(anonymous namespace)::WinEHStatePass", ptr %8, i32 0, i32 6
  call void @llvm.memcpy.p0.p0.i64(ptr align 8 %14, ptr align 8 %6, i64 16, i1 false)
  call void @_ZN4llvm14FunctionCalleeC2EDn(ptr noundef nonnull align 8 dereferenceable(16) %7, ptr null)
  %15 = getelementptr inbounds nuw %"class.(anonymous namespace)::WinEHStatePass", ptr %8, i32 0, i32 11
  call void @llvm.memcpy.p0.p0.i64(ptr align 8 %15, ptr align 8 %7, i64 16, i1 false)
  %16 = getelementptr inbounds nuw %"class.(anonymous namespace)::WinEHStatePass", ptr %8, i32 0, i32 12
  store ptr null, ptr %16, align 8
  ret i1 false
}